; ModuleID = '19/400.c'
source_filename = "19/400.c"
target datalayout = "e-m:e-p270:32:32-p271:32:32-p272:64:64-i64:64-f80:128-n8:16:32:64-S128"
target triple = "x86_64-pc-linux-gnu"

@.str = private unnamed_addr constant [2 x i8] c" \00", align 1
@.str.1 = private unnamed_addr constant [3 x i8] c"%s\00", align 1

; Function Attrs: noinline nounwind uwtable
define dso_local void @main() #0 {
  %1 = alloca [100 x i8], align 16
  %2 = alloca [100 x [100 x i8]], align 16
  %3 = alloca [100 x i8], align 16
  %4 = alloca [100 x i8], align 16
  %5 = alloca [100 x [100 x i8]], align 16
  %6 = alloca [100 x i8], align 16
  %7 = alloca i8*, align 8
  %8 = alloca i32, align 4
  %9 = alloca i32, align 4
  %10 = alloca i32, align 4
  %11 = alloca i32, align 4
  %12 = alloca i32, align 4
  %13 = alloca [100 x i32], align 16
  %14 = alloca i32, align 4
  %15 = bitcast [100 x [100 x i8]]* %2 to i8*
  call void @llvm.memset.p0i8.i64(i8* align 16 %15, i8 0, i64 10000, i1 false)
  %16 = bitcast [100 x i8]* %4 to i8*
  call void @llvm.memset.p0i8.i64(i8* align 16 %16, i8 0, i64 100, i1 false)
  store i32 0, i32* %10, align 4
  store i32 0, i32* %11, align 4
  store i32 0, i32* %12, align 4
  %17 = bitcast [100 x i32]* %13 to i8*
  call void @llvm.memset.p0i8.i64(i8* align 16 %17, i8 0, i64 400, i1 false)
  %18 = getelementptr inbounds [100 x i8], [100 x i8]* %1, i64 0, i64 0
  %19 = call i32 (i8*, ...) bitcast (i32 (...)* @gets to i32 (i8*, ...)*)(i8* %18)
  %20 = getelementptr inbounds [100 x i8], [100 x i8]* %3, i64 0, i64 0
  %21 = call i32 (i8*, ...) bitcast (i32 (...)* @gets to i32 (i8*, ...)*)(i8* %20)
  %22 = getelementptr inbounds [100 x i8], [100 x i8]* %4, i64 0, i64 0
  %23 = call i32 (i8*, ...) bitcast (i32 (...)* @gets to i32 (i8*, ...)*)(i8* %22)
  %24 = getelementptr inbounds [100 x i8], [100 x i8]* %1, i64 0, i64 0
  %25 = call i64 @strlen(i8* %24) #5
  %26 = trunc i64 %25 to i32
  store i32 %26, i32* %8, align 4
  %27 = getelementptr inbounds [100 x i8], [100 x i8]* %1, i64 0, i64 0
  store i8* %27, i8** %7, align 8
  br label %28

28:                                               ; preds = %44, %0
  %29 = load i8*, i8** %7, align 8
  %30 = getelementptr inbounds [100 x i8], [100 x i8]* %1, i64 0, i64 0
  %31 = load i32, i32* %8, align 4
  %32 = sext i32 %31 to i64
  %33 = getelementptr inbounds i8, i8* %30, i64 %32
  %34 = icmp ult i8* %29, %33
  br i1 %34, label %35, label %47

35:                                               ; preds = %28
  %36 = load i8*, i8** %7, align 8
  %37 = load i8, i8* %36, align 1
  %38 = sext i8 %37 to i32
  %39 = icmp eq i32 %38, 32
  br i1 %39, label %40, label %43

40:                                               ; preds = %35
  %41 = load i32, i32* %10, align 4
  %42 = add nsw i32 %41, 1
  store i32 %42, i32* %10, align 4
  br label %43

43:                                               ; preds = %40, %35
  br label %44

44:                                               ; preds = %43
  %45 = load i8*, i8** %7, align 8
  %46 = getelementptr inbounds i8, i8* %45, i32 1
  store i8* %46, i8** %7, align 8
  br label %28

47:                                               ; preds = %28
  store i32 0, i32* %9, align 4
  br label %48

48:                                               ; preds = %92, %47
  %49 = load i32, i32* %9, align 4
  %50 = load i32, i32* %10, align 4
  %51 = icmp sle i32 %49, %50
  br i1 %51, label %52, label %95

52:                                               ; preds = %48
  store i32 0, i32* %14, align 4
  br label %53

53:                                               ; preds = %77, %52
  %54 = getelementptr inbounds [100 x i8], [100 x i8]* %1, i64 0, i64 0
  %55 = load i32, i32* %12, align 4
  %56 = sext i32 %55 to i64
  %57 = getelementptr inbounds i8, i8* %54, i64 %56
  %58 = load i8, i8* %57, align 1
  %59 = sext i8 %58 to i32
  %60 = icmp ne i32 %59, 32
  br i1 %60, label %61, label %80

61:                                               ; preds = %53
  %62 = getelementptr inbounds [100 x i8], [100 x i8]* %1, i64 0, i64 0
  %63 = load i32, i32* %12, align 4
  %64 = sext i32 %63 to i64
  %65 = getelementptr inbounds i8, i8* %62, i64 %64
  %66 = load i8, i8* %65, align 1
  %67 = getelementptr inbounds [100 x [100 x i8]], [100 x [100 x i8]]* %2, i64 0, i64 0
  %68 = load i32, i32* %9, align 4
  %69 = sext i32 %68 to i64
  %70 = getelementptr inbounds [100 x i8], [100 x i8]* %67, i64 %69
  %71 = getelementptr inbounds [100 x i8], [100 x i8]* %70, i64 0, i64 0
  %72 = load i32, i32* %14, align 4
  %73 = sext i32 %72 to i64
  %74 = getelementptr inbounds i8, i8* %71, i64 %73
  store i8 %66, i8* %74, align 1
  %75 = load i32, i32* %12, align 4
  %76 = add nsw i32 %75, 1
  store i32 %76, i32* %12, align 4
  br label %77

77:                                               ; preds = %61
  %78 = load i32, i32* %14, align 4
  %79 = add nsw i32 %78, 1
  store i32 %79, i32* %14, align 4
  br label %53

80:                                               ; preds = %53
  %81 = getelementptr inbounds [100 x i8], [100 x i8]* %1, i64 0, i64 0
  %82 = load i32, i32* %12, align 4
  %83 = sext i32 %82 to i64
  %84 = getelementptr inbounds i8, i8* %81, i64 %83
  %85 = load i8, i8* %84, align 1
  %86 = sext i8 %85 to i32
  %87 = icmp eq i32 %86, 32
  br i1 %87, label %88, label %91

88:                                               ; preds = %80
  %89 = load i32, i32* %12, align 4
  %90 = add nsw i32 %89, 1
  store i32 %90, i32* %12, align 4
  br label %91

91:                                               ; preds = %88, %80
  br label %92

92:                                               ; preds = %91
  %93 = load i32, i32* %9, align 4
  %94 = add nsw i32 %93, 1
  store i32 %94, i32* %9, align 4
  br label %48

95:                                               ; preds = %48
  store i32 0, i32* %9, align 4
  br label %96

96:                                               ; preds = %126, %95
  %97 = load i32, i32* %9, align 4
  %98 = load i32, i32* %10, align 4
  %99 = icmp sle i32 %97, %98
  br i1 %99, label %100, label %129

100:                                              ; preds = %96
  %101 = load i32, i32* %9, align 4
  %102 = sext i32 %101 to i64
  %103 = getelementptr inbounds [100 x [100 x i8]], [100 x [100 x i8]]* %2, i64 0, i64 %102
  %104 = getelementptr inbounds [100 x i8], [100 x i8]* %103, i64 0, i64 0
  %105 = getelementptr inbounds [100 x i8], [100 x i8]* %3, i64 0, i64 0
  %106 = call i32 @strcmp(i8* %104, i8* %105) #5
  %107 = icmp eq i32 %106, 0
  br i1 %107, label %108, label %115

108:                                              ; preds = %100
  %109 = load i32, i32* %9, align 4
  %110 = sext i32 %109 to i64
  %111 = getelementptr inbounds [100 x [100 x i8]], [100 x [100 x i8]]* %5, i64 0, i64 %110
  %112 = getelementptr inbounds [100 x i8], [100 x i8]* %111, i64 0, i64 0
  %113 = getelementptr inbounds [100 x i8], [100 x i8]* %4, i64 0, i64 0
  %114 = call i8* @strcpy(i8* %112, i8* %113) #6
  br label %125

115:                                              ; preds = %100
  %116 = load i32, i32* %9, align 4
  %117 = sext i32 %116 to i64
  %118 = getelementptr inbounds [100 x [100 x i8]], [100 x [100 x i8]]* %5, i64 0, i64 %117
  %119 = getelementptr inbounds [100 x i8], [100 x i8]* %118, i64 0, i64 0
  %120 = load i32, i32* %9, align 4
  %121 = sext i32 %120 to i64
  %122 = getelementptr inbounds [100 x [100 x i8]], [100 x [100 x i8]]* %2, i64 0, i64 %121
  %123 = getelementptr inbounds [100 x i8], [100 x i8]* %122, i64 0, i64 0
  %124 = call i8* @strcpy(i8* %119, i8* %123) #6
  br label %125

125:                                              ; preds = %115, %108
  br label %126

126:                                              ; preds = %125
  %127 = load i32, i32* %9, align 4
  %128 = add nsw i32 %127, 1
  store i32 %128, i32* %9, align 4
  br label %96

129:                                              ; preds = %96
  %130 = getelementptr inbounds [100 x i8], [100 x i8]* %6, i64 0, i64 0
  %131 = getelementptr inbounds [100 x [100 x i8]], [100 x [100 x i8]]* %5, i64 0, i64 0
  %132 = getelementptr inbounds [100 x i8], [100 x i8]* %131, i64 0, i64 0
  %133 = call i8* @strcpy(i8* %130, i8* %132) #6
  store i32 1, i32* %9, align 4
  br label %134

134:                                              ; preds = %147, %129
  %135 = load i32, i32* %9, align 4
  %136 = load i32, i32* %10, align 4
  %137 = icmp sle i32 %135, %136
  br i1 %137, label %138, label %150

138:                                              ; preds = %134
  %139 = getelementptr inbounds [100 x i8], [100 x i8]* %6, i64 0, i64 0
  %140 = call i8* @strcat(i8* %139, i8* getelementptr inbounds ([2 x i8], [2 x i8]* @.str, i64 0, i64 0)) #6
  %141 = getelementptr inbounds [100 x i8], [100 x i8]* %6, i64 0, i64 0
  %142 = load i32, i32* %9, align 4
  %143 = sext i32 %142 to i64
  %144 = getelementptr inbounds [100 x [100 x i8]], [100 x [100 x i8]]* %5, i64 0, i64 %143
  %145 = getelementptr inbounds [100 x i8], [100 x i8]* %144, i64 0, i64 0
  %146 = call i8* @strcat(i8* %141, i8* %145) #6
  br label %147

147:                                              ; preds = %138
  %148 = load i32, i32* %9, align 4
  %149 = add nsw i32 %148, 1
  store i32 %149, i32* %9, align 4
  br label %134

150:                                              ; preds = %134
  %151 = getelementptr inbounds [100 x i8], [100 x i8]* %6, i64 0, i64 0
  %152 = call i32 (i8*, ...) @printf(i8* getelementptr inbounds ([3 x i8], [3 x i8]* @.str.1, i64 0, i64 0), i8* %151)
  ret void
}

; Function Attrs: argmemonly nounwind willreturn
declare void @llvm.memset.p0i8.i64(i8* nocapture writeonly, i8, i64, i1 immarg) #1

declare dso_local i32 @gets(...) #2

; Function Attrs: nounwind readonly
declare dso_local i64 @strlen(i8*) #3

; Function Attrs: nounwind readonly
declare dso_local i32 @strcmp(i8*, i8*) #3

; Function Attrs: nounwind
declare dso_local i8* @strcpy(i8*, i8*) #4

; Function Attrs: nounwind
declare dso_local i8* @strcat(i8*, i8*) #4

declare dso_local i32 @printf(i8*, ...) #2


!llvm.module.flags = !{!0}
!llvm.ident = !{!1}

!0 = !{i32 1, !"wchar_size", i32 4}
!1 = !{!"clang version 10.0.0-4ubuntu1 "}
